target datalayout = "e-m:e-p270:32:32-p271:32:32-p272:64:64-i64:64-i128:128-f80:128-n8:16:32:64-S128"
target triple = "x86_64-unknown-linux-gnu"

%"class.zmq::raw_decoder_t" = type { %"class.zmq::i_decoder", %"class.zmq::msg_t", %"class.zmq::shared_message_memory_allocator" }
%"class.zmq::i_decoder" = type { ptr }
%"class.zmq::msg_t" = type { %union.anon }
%union.anon = type { %struct.anon }
%struct.anon = type { ptr, [34 x i8], i8, i8, i32, %"union.zmq::msg_t::group_t" }
%"union.zmq::msg_t::group_t" = type { %struct.anon.1 }
%struct.anon.1 = type { i8, ptr }
%"class.zmq::shared_message_memory_allocator" = type { ptr, i64, i64, ptr, i64 }

@stderr = external global ptr, align 8
@.str = private unnamed_addr constant [12 x i8] c"%s (%s:%d)\0A\00", align 1
@.str.1 = private unnamed_addr constant [111 x i8] c"generated/home/dtcxzyw/WorkSpace/Projects/compilers/llvm-opt-benchmark/bench/libzmq/libzmq/src/raw_decoder.cpp\00", align 1
@_ZTVN3zmq9i_decoderE = linkonce_odr unnamed_addr constant { [8 x ptr] } { [8 x ptr] [ptr null, ptr @_ZTIN3zmq9i_decoderE, ptr @_ZN3zmq9i_decoderD2Ev, ptr @_ZN3zmq9i_decoderD0Ev, ptr @__cxa_pure_virtual, ptr @__cxa_pure_virtual, ptr @__cxa_pure_virtual, ptr @__cxa_pure_virtual] }, comdat, align 8

; Function Attrs: mustprogress nounwind uwtable
define linkonce_odr void @_ZN3zmq9i_decoderD2Ev(ptr noundef nonnull align 8 dereferenceable(8) %this) unnamed_addr #1 comdat align 2 {
entry:
  %this.addr = alloca ptr, align 8
  store ptr %this, ptr %this.addr, align 8
  ret void
}

; Function Attrs: mustprogress nounwind uwtable
define linkonce_odr void @_ZN3zmq9i_decoderC2Ev(ptr noundef nonnull align 8 dereferenceable(8) %this) unnamed_addr #1 comdat align 2 {
entry:
  %this.addr = alloca ptr, align 8
  store ptr %this, ptr %this.addr, align 8
  %this1 = load ptr, ptr %this.addr, align 8
  store ptr getelementptr inbounds ({ [8 x ptr] }, ptr @_ZTVN3zmq9i_decoderE, i32 0, i32 0, i32 2), ptr %this1, align 8
  ret void
}

; Function Attrs: mustprogress uwtable
define void @_ZN3zmq13raw_decoder_tC2Em(ptr noundef nonnull align 8 dereferenceable(112) %this, i64 noundef %bufsize_) unnamed_addr #0 align 2 personality ptr @__gxx_personality_v0 {
entry:
  %this.addr = alloca ptr, align 8
  %bufsize_.addr = alloca i64, align 8
  %exn.slot = alloca ptr, align 8
  %ehselector.slot = alloca i32, align 4
  %rc = alloca i32, align 4
  %errstr = alloca ptr, align 8
  store ptr %this, ptr %this.addr, align 8
  store i64 %bufsize_, ptr %bufsize_.addr, align 8
  %this1 = load ptr, ptr %this.addr, align 8
  call void @_ZN3zmq9i_decoderC2Ev(ptr noundef nonnull align 8 dereferenceable(8) %this1) #8
  store ptr getelementptr inbounds ({ [8 x ptr] }, ptr @_ZTVN3zmq13raw_decoder_tE, i32 0, i32 0, i32 2), ptr %this1, align 8
  %_allocator = getelementptr inbounds %"class.zmq::raw_decoder_t", ptr %this1, i32 0, i32 2
  %0 = load i64, ptr %bufsize_.addr, align 8
  invoke void @_ZN3zmq31shared_message_memory_allocatorC1Emm(ptr noundef nonnull align 8 dereferenceable(40) %_allocator, i64 noundef %0, i64 noundef 1)
          to label %invoke.cont unwind label %lpad

invoke.cont:                                      ; preds = %entry
  %_in_progress2 = getelementptr inbounds %"class.zmq::raw_decoder_t", ptr %this1, i32 0, i32 1
  %call = invoke noundef i32 @_ZN3zmq5msg_t4initEv(ptr noundef nonnull align 8 dereferenceable(64) %_in_progress2)
          to label %invoke.cont4 unwind label %lpad3

invoke.cont4:                                     ; preds = %invoke.cont
  store i32 %call, ptr %rc, align 4
  br label %do.body

do.body:                                          ; preds = %invoke.cont4
  %1 = load i32, ptr %rc, align 4
  %cmp = icmp eq i32 %1, 0
  %lnot = xor i1 %cmp, true
  br i1 %lnot, label %if.then, label %if.end

if.then:                                          ; preds = %do.body
  %call5 = call ptr @__errno_location() #9
  %2 = load i32, ptr %call5, align 4
  %call6 = call ptr @strerror(i32 noundef %2) #8
  store ptr %call6, ptr %errstr, align 8
  %3 = load ptr, ptr @stderr, align 8
  %4 = load ptr, ptr %errstr, align 8
  %call8 = invoke i32 (ptr, ptr, ...) @fprintf(ptr noundef %3, ptr noundef @.str, ptr noundef %4, ptr noundef @.str.1, i32 noundef 13)
          to label %invoke.cont7 unwind label %lpad3

invoke.cont7:                                     ; preds = %if.then
  %5 = load ptr, ptr @stderr, align 8
  %call10 = invoke i32 @fflush(ptr noundef %5)
          to label %invoke.cont9 unwind label %lpad3

invoke.cont9:                                     ; preds = %invoke.cont7
  %6 = load ptr, ptr %errstr, align 8
  invoke void @_ZN3zmq9zmq_abortEPKc(ptr noundef %6)
          to label %invoke.cont11 unwind label %lpad3

invoke.cont11:                                    ; preds = %invoke.cont9
  br label %if.end

lpad:                                             ; preds = %entry
  %7 = landingpad { ptr, i32 }
          cleanup
  %8 = extractvalue { ptr, i32 } %7, 0
  store ptr %8, ptr %exn.slot, align 8
  %9 = extractvalue { ptr, i32 } %7, 1
  store i32 %9, ptr %ehselector.slot, align 4
  br label %ehcleanup

lpad3:                                            ; preds = %invoke.cont9, %invoke.cont7, %if.then, %invoke.cont
  %10 = landingpad { ptr, i32 }
          cleanup
  %11 = extractvalue { ptr, i32 } %10, 0
  store ptr %11, ptr %exn.slot, align 8
  %12 = extractvalue { ptr, i32 } %10, 1
  store i32 %12, ptr %ehselector.slot, align 4
  call void @_ZN3zmq31shared_message_memory_allocatorD1Ev(ptr noundef nonnull align 8 dereferenceable(40) %_allocator) #8
  br label %ehcleanup

if.end:                                           ; preds = %invoke.cont11, %do.body
  br label %do.cond

do.cond:                                          ; preds = %if.end
  br label %do.end

do.end:                                           ; preds = %do.cond
  ret void

ehcleanup:                                        ; preds = %lpad3, %lpad
  call void @_ZN3zmq9i_decoderD2Ev(ptr noundef nonnull align 8 dereferenceable(8) %this1) #8
  br label %eh.resume

eh.resume:                                        ; preds = %ehcleanup
  %exn = load ptr, ptr %exn.slot, align 8
  %sel = load i32, ptr %ehselector.slot, align 4
  %lpad.val = insertvalue { ptr, i32 } poison, ptr %exn, 0
  %lpad.val12 = insertvalue { ptr, i32 } %lpad.val, i32 %sel, 1
  resume { ptr, i32 } %lpad.val12
}