; Function Attrs: mustprogress uwtable
define void @_ZN3zmq13raw_decoder_tC2Em(ptr noundef nonnull align 8 dereferenceable(112) %this, i64 noundef %bufsize_) unnamed_addr #0 align 2 personality ptr @__gxx_personality_v0 {
entry:
  store ptr getelementptr inbounds ({ [8 x ptr] }, ptr @_ZTVN3zmq13raw_decoder_tE, i64 0, i32 0, i64 2), ptr %this, align 8
  %_allocator = getelementptr inbounds i8, ptr %this, i64 72
  tail call void @_ZN3zmq31shared_message_memory_allocatorC1Emm(ptr noundef nonnull align 8 dereferenceable(40) %_allocator, i64 noundef %bufsize_, i64 noundef 1)
  %_in_progress2 = getelementptr inbounds i8, ptr %this, i64 8
  %call = invoke noundef i32 @_ZN3zmq5msg_t4initEv(ptr noundef nonnull align 8 dereferenceable(64) %_in_progress2)
          to label %invoke.cont4 unwind label %lpad3

invoke.cont4:                                     ; preds = %entry
  %cmp.not = icmp eq i32 %call, 0
  br i1 %cmp.not, label %do.end, label %if.then

if.then:                                          ; preds = %invoke.cont4
  %call5 = tail call ptr @__errno_location() #8
  %0 = load i32, ptr %call5, align 4
  %call6 = tail call ptr @strerror(i32 noundef %0) #9
  %1 = load ptr, ptr @stderr, align 8
  %call8 = tail call i32 (ptr, ptr, ...) @fprintf(ptr noundef %1, ptr noundef nonnull @.str, ptr noundef %call6, ptr noundef nonnull @.str.1, i32 noundef 13) #10
  %2 = load ptr, ptr @stderr, align 8
  %call10 = tail call i32 @fflush(ptr noundef %2)
  invoke void @_ZN3zmq9zmq_abortEPKc(ptr noundef %call6)
          to label %do.end unwind label %lpad3

lpad3:                                            ; preds = %if.then, %entry
  %3 = landingpad { ptr, i32 }
          cleanup
  tail call void @_ZN3zmq31shared_message_memory_allocatorD1Ev(ptr noundef nonnull align 8 dereferenceable(40) %_allocator) #9
  resume { ptr, i32 } %3

do.end:                                           ; preds = %if.then, %invoke.cont4
  ret void
}